; ModuleID = '50/572.c'
source_filename = "50/572.c"
target datalayout = "e-m:e-p270:32:32-p271:32:32-p272:64:64-i64:64-f80:128-n8:16:32:64-S128"
target triple = "x86_64-pc-linux-gnu"

@.str = private unnamed_addr constant [3 x i8] c"%d\00", align 1
@.str.1 = private unnamed_addr constant [3 x i8] c"1\0A\00", align 1
@.str.2 = private unnamed_addr constant [5 x i8] c"2\0A3\0A\00", align 1
@.str.3 = private unnamed_addr constant [3 x i8] c"4\0A\00", align 1
@.str.4 = private unnamed_addr constant [3 x i8] c"5\0A\00", align 1
@.str.5 = private unnamed_addr constant [3 x i8] c"6\0A\00", align 1
@.str.6 = private unnamed_addr constant [3 x i8] c"7\0A\00", align 1
@.str.7 = private unnamed_addr constant [3 x i8] c"8\0A\00", align 1
@.str.8 = private unnamed_addr constant [6 x i8] c"9\0A12\0A\00", align 1
@.str.9 = private unnamed_addr constant [4 x i8] c"10\0A\00", align 1
@.str.10 = private unnamed_addr constant [4 x i8] c"11\0A\00", align 1

; Function Attrs: noinline nounwind uwtable
define dso_local i32 @main() #0 {
  %1 = alloca i32, align 4
  %2 = alloca i32, align 4
  store i32 0, i32* %1, align 4
  %3 = call i32 (i8*, ...) @__isoc99_scanf(i8* getelementptr inbounds ([3 x i8], [3 x i8]* @.str, i64 0, i64 0), i32* %2)
  %4 = load i32, i32* %2, align 4
  %5 = add nsw i32 %4, 7
  %6 = srem i32 %5, 7
  %7 = icmp eq i32 %6, 0
  br i1 %7, label %8, label %10

8:                                                ; preds = %0
  %9 = call i32 (i8*, ...) @printf(i8* getelementptr inbounds ([3 x i8], [3 x i8]* @.str.1, i64 0, i64 0))
  br label %10

10:                                               ; preds = %8, %0
  %11 = load i32, i32* %2, align 4
  %12 = add nsw i32 %11, 10
  %13 = srem i32 %12, 7
  %14 = icmp eq i32 %13, 0
  br i1 %14, label %15, label %17

15:                                               ; preds = %10
  %16 = call i32 (i8*, ...) @printf(i8* getelementptr inbounds ([5 x i8], [5 x i8]* @.str.2, i64 0, i64 0))
  br label %17

17:                                               ; preds = %15, %10
  %18 = load i32, i32* %2, align 4
  %19 = add nsw i32 %18, 13
  %20 = srem i32 %19, 7
  %21 = icmp eq i32 %20, 0
  br i1 %21, label %22, label %24

22:                                               ; preds = %17
  %23 = call i32 (i8*, ...) @printf(i8* getelementptr inbounds ([3 x i8], [3 x i8]* @.str.3, i64 0, i64 0))
  br label %24

24:                                               ; preds = %22, %17
  %25 = load i32, i32* %2, align 4
  %26 = add nsw i32 %25, 15
  %27 = srem i32 %26, 7
  %28 = icmp eq i32 %27, 0
  br i1 %28, label %29, label %31

29:                                               ; preds = %24
  %30 = call i32 (i8*, ...) @printf(i8* getelementptr inbounds ([3 x i8], [3 x i8]* @.str.4, i64 0, i64 0))
  br label %31

31:                                               ; preds = %29, %24
  %32 = load i32, i32* %2, align 4
  %33 = add nsw i32 %32, 18
  %34 = srem i32 %33, 7
  %35 = icmp eq i32 %34, 0
  br i1 %35, label %36, label %38

36:                                               ; preds = %31
  %37 = call i32 (i8*, ...) @printf(i8* getelementptr inbounds ([3 x i8], [3 x i8]* @.str.5, i64 0, i64 0))
  br label %38

38:                                               ; preds = %36, %31
  %39 = load i32, i32* %2, align 4
  %40 = add nsw i32 %39, 20
  %41 = srem i32 %40, 7
  %42 = icmp eq i32 %41, 0
  br i1 %42, label %43, label %45

43:                                               ; preds = %38
  %44 = call i32 (i8*, ...) @printf(i8* getelementptr inbounds ([3 x i8], [3 x i8]* @.str.6, i64 0, i64 0))
  br label %45

45:                                               ; preds = %43, %38
  %46 = load i32, i32* %2, align 4
  %47 = add nsw i32 %46, 23
  %48 = srem i32 %47, 7
  %49 = icmp eq i32 %48, 0
  br i1 %49, label %50, label %52

50:                                               ; preds = %45
  %51 = call i32 (i8*, ...) @printf(i8* getelementptr inbounds ([3 x i8], [3 x i8]* @.str.7, i64 0, i64 0))
  br label %52

52:                                               ; preds = %50, %45
  %53 = load i32, i32* %2, align 4
  %54 = add nsw i32 %53, 26
  %55 = srem i32 %54, 7
  %56 = icmp eq i32 %55, 0
  br i1 %56, label %57, label %59

57:                                               ; preds = %52
  %58 = call i32 (i8*, ...) @printf(i8* getelementptr inbounds ([6 x i8], [6 x i8]* @.str.8, i64 0, i64 0))
  br label %59

59:                                               ; preds = %57, %52
  %60 = load i32, i32* %2, align 4
  %61 = add nsw i32 %60, 28
  %62 = srem i32 %61, 7
  %63 = icmp eq i32 %62, 0
  br i1 %63, label %64, label %66

64:                                               ; preds = %59
  %65 = call i32 (i8*, ...) @printf(i8* getelementptr inbounds ([4 x i8], [4 x i8]* @.str.9, i64 0, i64 0))
  br label %66

66:                                               ; preds = %64, %59
  %67 = load i32, i32* %2, align 4
  %68 = add nsw i32 %67, 31
  %69 = srem i32 %68, 7
  %70 = icmp eq i32 %69, 0
  br i1 %70, label %71, label %73

71:                                               ; preds = %66
  %72 = call i32 (i8*, ...) @printf(i8* getelementptr inbounds ([4 x i8], [4 x i8]* @.str.10, i64 0, i64 0))
  br label %73

73:                                               ; preds = %71, %66
  ret i32 0
}

declare dso_local i32 @__isoc99_scanf(i8*, ...) #1

declare dso_local i32 @printf(i8*, ...) #1


!llvm.module.flags = !{!0}
!llvm.ident = !{!1}

!0 = !{i32 1, !"wchar_size", i32 4}
!1 = !{!"clang version 10.0.0-4ubuntu1 "}
